Certificate:
    Data:
        Version: 3 (0x2)
        Serial Number: 38 (0x26)
        Signature Algorithm: sha256WithRSAEncryption
        Issuer: C=US, O=Google, OU=Enterprise, CN=Single Root CA
        Validity
            Not Before: Aug 15 18:15:07 2024 GMT
            Not After : Aug 15 18:15:07 2034 GMT
        Subject: C=US, O=Google, OU=Enterprise, CN=server.domain.com
        Subject Public Key Info:
            Public Key Algorithm: rsaEncryption
                Public-Key: (2048 bit)
                Modulus:
                    00:b8:80:3e:a3:df:ad:61:6a:85:2c:d8:23:e8:2e:
                    16:0d:84:c2:56:b3:a4:b7:9f:ce:bf:72:85:93:f7:
                    ed:11:9f:e2:b2:a0:82:16:0f:50:a3:1f:bc:3b:5a:
                    f5:b3:e8:ef:5d:ee:d5:69:40:ae:47:0b:6f:57:6e:
                    7f:31:d2:4a:74:c1:9b:fb:2b:85:9d:ea:c8:d2:37:
                    00:f4:bb:c5:72:bf:76:18:6c:d6:c3:d7:c3:6c:30:
                    bd:12:f6:22:bb:29:46:7d:ca:93:29:0d:b3:71:c4:
                    bb:57:ac:06:7e:b4:15:51:89:70:6b:79:49:2b:c3:
                    cd:b6:6b:54:4b:a9:cb:0c:6c:2b:7f:07:fa:2a:a1:
                    2e:d3:a0:17:47:d9:11:5a:e4:0f:c7:7c:2d:f9:d1:
                    aa:6b:4f:f4:12:b0:2e:c7:8a:b4:80:44:98:93:c5:
                    a1:3c:7c:63:7f:77:44:ff:9a:1b:10:28:33:c6:43:
                    33:f9:57:c8:97:01:4f:f3:a6:c3:f1:79:d2:a9:1a:
                    5a:b1:bb:c4:e9:78:35:b1:c7:a0:b2:ec:00:b1:f0:
                    cb:0e:aa:30:65:d6:fa:f5:6c:75:5b:26:4f:23:5b:
                    94:77:2d:2e:aa:94:79:cf:34:6c:ba:60:3b:cb:26:
                    ae:24:fc:08:5b:20:7f:1e:60:ba:21:b1:8d:7d:2c:
                    bc:6d
                Exponent: 65537 (0x10001)
        X509v3 extensions:
            X509v3 Key Usage: critical
                Digital Signature
            X509v3 Basic Constraints: 
                CA:FALSE
            X509v3 Extended Key Usage: 
                TLS Web Server Authentication
            X509v3 Subject Key Identifier: 
                EB:E6:BF:BB:A5:CA:98:2C:34:A1:D0:69:DC:4C:EF:7B:7E:CE:BB:2B
            X509v3 Authority Key Identifier: 
                EC:F0:EA:53:53:3F:9F:23:DC:C1:0E:31:10:37:07:DE:DE:E7:6E:F3
            Authority Information Access: 
                CA Issuers - URI:http://pki.esodemoapp2.com/ca/root-ca.cer
            X509v3 CRL Distribution Points: 
                Full Name:
                  URI:http://pki.esodemoapp2.com/ca/root-ca.crl
            X509v3 Subject Alternative Name: 
                DNS:server.domain.com
    Signature Algorithm: sha256WithRSAEncryption
    Signature Value:
        1c:bf:cd:df:30:98:fd:be:2b:52:98:90:51:0e:e5:57:61:ae:
        d4:e7:99:d5:49:4d:ae:31:57:b1:0f:67:f1:a1:ce:f3:b3:51:
        b2:ea:8b:04:66:d7:4d:b7:e6:8f:cb:45:14:70:ed:ec:8e:bf:
        0c:10:74:a5:64:1e:09:40:ee:f5:35:67:89:bf:db:e3:5d:7d:
        16:b9:96:e9:8b:37:be:81:28:bd:0d:1e:ae:8c:89:47:9b:54:
        f8:05:4b:41:6c:ce:14:1a:c1:c0:9d:3d:e6:21:52:c9:d6:d9:
        1b:05:e4:5f:72:4c:10:e5:4c:63:7d:72:69:ab:2c:b0:f3:1d:
        41:20:cb:b4:e4:05:cf:6f:6f:78:86:68:24:8b:cf:97:fe:9d:
        99:0d:bf:19:7d:5a:69:0e:55:92:79:92:51:cf:5f:7a:84:98:
        10:ee:cd:ed:77:65:9d:cc:c3:99:8d:a9:a3:e6:60:55:39:1e:
        bd:d2:c6:a8:14:8a:c1:20:d9:cc:6e:6d:36:95:1b:68:76:e3:
        28:03:d5:50:d6:dd:0e:5f:e5:13:e6:12:81:4d:a3:9b:48:59:
        49:95:6e:7a:0e:e4:df:5f:83:04:0b:1d:a2:8a:0e:97:e9:ee:
        d3:6a:94:c2:a9:03:9e:97:c8:28:c7:58:ea:90:f2:77:96:7a:
        c9:4e:a8:b7
-----BEGIN CERTIFICATE-----
MIIELTCCAxWgAwIBAgIBJjANBgkqhkiG9w0BAQsFADBMMQswCQYDVQQGEwJVUzEP
MA0GA1UECgwGR29vZ2xlMRMwEQYDVQQLDApFbnRlcnByaXNlMRcwFQYDVQQDDA5T
aW5nbGUgUm9vdCBDQTAeFw0yNDA4MTUxODE1MDdaFw0zNDA4MTUxODE1MDdaME8x
CzAJBgNVBAYTAlVTMQ8wDQYDVQQKDAZHb29nbGUxEzARBgNVBAsMCkVudGVycHJp
c2UxGjAYBgNVBAMMEXNlcnZlci5kb21haW4uY29tMIIBIjANBgkqhkiG9w0BAQEF
AAOCAQ8AMIIBCgKCAQEAuIA+o9+tYWqFLNgj6C4WDYTCVrOkt5/Ov3KFk/ftEZ/i
sqCCFg9Qox+8O1r1s+jvXe7VaUCuRwtvV25/MdJKdMGb+yuFnerI0jcA9LvFcr92
GGzWw9fDbDC9EvYiuylGfcqTKQ2zccS7V6wGfrQVUYlwa3lJK8PNtmtUS6nLDGwr
fwf6KqEu06AXR9kRWuQPx3wt+dGqa0/0ErAux4q0gESYk8WhPHxjf3dE/5obECgz
xkMz+VfIlwFP86bD8XnSqRpasbvE6Xg1scegsuwAsfDLDqowZdb69Wx1WyZPI1uU
dy0uqpR5zzRsumA7yyauJPwIWyB/HmC6IbGNfSy8bQIDAQABo4IBFTCCAREwDgYD
VR0PAQH/BAQDAgeAMAkGA1UdEwQCMAAwEwYDVR0lBAwwCgYIKwYBBQUHAwEwHQYD
VR0OBBYEFOvmv7ulypgsNKHQadxM73t+zrsrMB8GA1UdIwQYMBaAFOzw6lNTP58j
3MEOMRA3B97e527zMEUGCCsGAQUFBwEBBDkwNzA1BggrBgEFBQcwAoYpaHR0cDov
L3BraS5lc29kZW1vYXBwMi5jb20vY2Evcm9vdC1jYS5jZXIwOgYDVR0fBDMwMTAv
oC2gK4YpaHR0cDovL3BraS5lc29kZW1vYXBwMi5jb20vY2Evcm9vdC1jYS5jcmww
HAYDVR0RBBUwE4IRc2VydmVyLmRvbWFpbi5jb20wDQYJKoZIhvcNAQELBQADggEB
ABy/zd8wmP2+K1KYkFEO5VdhrtTnmdVJTa4xV7EPZ/GhzvOzUbLqiwRm10235o/L
RRRw7eyOvwwQdKVkHglA7vU1Z4m/2+NdfRa5lumLN76BKL0NHq6MiUebVPgFS0Fs
zhQawcCdPeYhUsnW2RsF5F9yTBDlTGN9cmmrLLDzHUEgy7TkBc9vb3iGaCSLz5f+
nZkNvxl9WmkOVZJ5klHPX3qEmBDuze13ZZ3Mw5mNqaPmYFU5Hr3SxqgUisEg2cxu
bTaVG2h24ygD1VDW3Q5f5RPmEoFNo5tIWUmVbnoO5N9fgwQLHaKKDpfp7tNqlMKp
A56XyCjHWOqQ8neWeslOqLc=
-----END CERTIFICATE-----
